target datalayout = "e-m:e-p270:32:32-p271:32:32-p272:64:64-i64:64-i128:128-f80:128-n8:16:32:64-S128"
target triple = "x86_64-pc-linux-gnu"

@rb_eTypeError = external global i64, align 8
@.str.122 = private unnamed_addr constant [5 x i8] c"true\00", align 1
@.str.124 = private unnamed_addr constant [6 x i8] c"false\00", align 1
@.str.145 = private unnamed_addr constant [26 x i8] c"no implicit conversion of\00", align 1
@.str.146 = private unnamed_addr constant [14 x i8] c"can't convert\00", align 1
@.str.147 = private unnamed_addr constant [4 x i8] c"nil\00", align 1
@.str.148 = private unnamed_addr constant [14 x i8] c"%s %s into %s\00", align 1
@.str.149 = private unnamed_addr constant [16 x i8] c"%s %li\0B into %s\00", align 1

; Function Attrs: inlinehint nounwind sspstrong willreturn memory(none) uwtable
define internal zeroext i1 @RB_NIL_P(i64 noundef %0) #1 {
  %2 = alloca i64, align 8
  store i64 %0, ptr %2, align 8, !tbaa !11
  %3 = load i64, ptr %2, align 8, !tbaa !11
  %4 = icmp eq i64 %3, 4
  ret i1 %4
}

; Function Attrs: inlinehint nounwind sspstrong willreturn memory(none) uwtable
define internal zeroext i1 @RB_UNDEF_P(i64 noundef %0) #1 {
  %2 = alloca i64, align 8
  store i64 %0, ptr %2, align 8, !tbaa !11
  %3 = load i64, ptr %2, align 8, !tbaa !11
  %4 = icmp eq i64 %3, 36
  ret i1 %4
}

; Function Attrs: nounwind sspstrong uwtable
define internal i64 @convert_type_with_id(i64 noundef %0, ptr noundef %1, i64 noundef %2, i32 noundef %3, i32 noundef %4) #0 {
  %6 = alloca i64, align 8
  %7 = alloca i64, align 8
  %8 = alloca ptr, align 8
  %9 = alloca i64, align 8
  %10 = alloca i32, align 4
  %11 = alloca i32, align 4
  %12 = alloca i64, align 8
  %13 = alloca ptr, align 8
  %14 = alloca ptr, align 8
  %15 = alloca i32, align 4
  store i64 %0, ptr %7, align 8, !tbaa !11
  store ptr %1, ptr %8, align 8, !tbaa !50
  store i64 %2, ptr %9, align 8, !tbaa !11
  store i32 %3, ptr %10, align 4, !tbaa !7
  store i32 %4, ptr %11, align 4, !tbaa !7
  call void @llvm.lifetime.start.p0(i64 8, ptr %12) #28
  %16 = load i64, ptr %7, align 8, !tbaa !11
  %17 = load i64, ptr %9, align 8, !tbaa !11
  %18 = call i64 @rb_check_funcall(i64 noundef %16, i64 noundef %17, i32 noundef 0, ptr noundef null)
  store i64 %18, ptr %12, align 8, !tbaa !11
  %19 = load i64, ptr %12, align 8, !tbaa !11
  %20 = call zeroext i1 @RB_UNDEF_P(i64 noundef %19) #27
  br i1 %20, label %21, label %66

21:                                               ; preds = %5
  %22 = load i32, ptr %10, align 4, !tbaa !7
  %23 = icmp ne i32 %22, 0
  br i1 %23, label %24, label %65

24:                                               ; preds = %21
  call void @llvm.lifetime.start.p0(i64 8, ptr %13) #28
  %25 = load i32, ptr %11, align 4, !tbaa !7
  %26 = icmp slt i32 %25, 0
  br i1 %26, label %27, label %31

27:                                               ; preds = %24
  %28 = load i64, ptr %9, align 8, !tbaa !11
  %29 = call ptr @rb_id2name(i64 noundef %28)
  %30 = call i32 @conv_method_index(ptr noundef %29)
  br label %33

31:                                               ; preds = %24
  %32 = load i32, ptr %11, align 4, !tbaa !7
  br label %33

33:                                               ; preds = %31, %27
  %34 = phi i32 [ %30, %27 ], [ %32, %31 ]
  %35 = icmp slt i32 %34, 7
  %36 = select i1 %35, ptr @.str.145, ptr @.str.146
  store ptr %36, ptr %13, align 8, !tbaa !50
  call void @llvm.lifetime.start.p0(i64 8, ptr %14) #28
  %37 = load i64, ptr %7, align 8, !tbaa !11
  %38 = call zeroext i1 @RB_NIL_P(i64 noundef %37) #27
  br i1 %38, label %39, label %40

39:                                               ; preds = %33
  br label %50

40:                                               ; preds = %33
  %41 = load i64, ptr %7, align 8, !tbaa !11
  %42 = icmp eq i64 %41, 20
  br i1 %42, label %43, label %44

43:                                               ; preds = %40
  br label %48

44:                                               ; preds = %40
  %45 = load i64, ptr %7, align 8, !tbaa !11
  %46 = icmp eq i64 %45, 0
  %47 = select i1 %46, ptr @.str.124, ptr null
  br label %48

48:                                               ; preds = %44, %43
  %49 = phi ptr [ @.str.122, %43 ], [ %47, %44 ]
  br label %50

50:                                               ; preds = %48, %39
  %51 = phi ptr [ @.str.147, %39 ], [ %49, %48 ]
  store ptr %51, ptr %14, align 8, !tbaa !50
  %52 = load ptr, ptr %14, align 8, !tbaa !50
  %53 = icmp ne ptr %52, null
  br i1 %53, label %54, label %59

54:                                               ; preds = %50
  %55 = load i64, ptr @rb_eTypeError, align 8, !tbaa !11
  %56 = load ptr, ptr %13, align 8, !tbaa !50
  %57 = load ptr, ptr %14, align 8, !tbaa !50
  %58 = load ptr, ptr %8, align 8, !tbaa !50
  call void (i64, ptr, ...) @rb_raise(i64 noundef %55, ptr noundef @.str.148, ptr noundef %56, ptr noundef %57, ptr noundef %58) #31
  unreachable

59:                                               ; preds = %50
  %60 = load i64, ptr @rb_eTypeError, align 8, !tbaa !11
  %61 = load ptr, ptr %13, align 8, !tbaa !50
  %62 = load i64, ptr %7, align 8, !tbaa !11
  %63 = call i64 @rb_obj_class(i64 noundef %62)
  %64 = load ptr, ptr %8, align 8, !tbaa !50
  call void (i64, ptr, ...) @rb_raise(i64 noundef %60, ptr noundef @.str.149, ptr noundef %61, i64 noundef %63, ptr noundef %64) #31
  unreachable

65:                                               ; preds = %21
  store i64 4, ptr %6, align 8
  store i32 1, ptr %15, align 4
  br label %68

66:                                               ; preds = %5
  %67 = load i64, ptr %12, align 8, !tbaa !11
  store i64 %67, ptr %6, align 8
  store i32 1, ptr %15, align 4
  br label %68

68:                                               ; preds = %66, %65
  call void @llvm.lifetime.end.p0(i64 8, ptr %12) #28
  %69 = load i64, ptr %6, align 8
  ret i64 %69
}