; Function Attrs: nounwind sspstrong uwtable
define internal fastcc range(i64 37, 36) i64 @convert_type_with_id(i64 noundef %0, ptr noundef %1, i64 noundef %2, i32 noundef range(i32 0, 2) %3, i32 noundef %4) unnamed_addr #2 {
  %6 = tail call i64 @rb_check_funcall(i64 noundef %0, i64 noundef %2, i32 noundef 0, ptr noundef null) #23
  %7 = icmp eq i64 %6, 36
  br i1 %7, label %8, label %28

8:                                                ; preds = %5
  %.not = icmp eq i32 %3, 0
  br i1 %.not, label %28, label %9

9:                                                ; preds = %8
  %10 = icmp slt i32 %4, 0
  br i1 %10, label %11, label %14

11:                                               ; preds = %9
  %12 = tail call ptr @rb_id2name(i64 noundef %2) #23
  %13 = tail call fastcc i32 @conv_method_index(ptr noundef %12)
  br label %14

14:                                               ; preds = %9, %11
  %15 = phi i32 [ %13, %11 ], [ %4, %9 ]
  %16 = icmp samesign ult i32 %15, 7
  %17 = select i1 %16, ptr @.str.145, ptr @.str.146
  %18 = icmp eq i64 %0, 4
  %19 = icmp eq i64 %0, 20
  %20 = icmp eq i64 %0, 0
  %21 = select i1 %20, ptr @.str.124, ptr null
  %22 = select i1 %19, ptr @.str.122, ptr %21
  %23 = select i1 %18, ptr @.str.147, ptr %22
  %.not20 = icmp eq ptr %23, null
  %24 = load i64, ptr @rb_eTypeError, align 8, !tbaa !7
  br i1 %.not20, label %26, label %25

25:                                               ; preds = %14
  tail call void (i64, ptr, ...) @rb_raise(i64 noundef %24, ptr noundef nonnull @.str.148, ptr noundef nonnull %17, ptr noundef nonnull %23, ptr noundef %1) #24
  unreachable

26:                                               ; preds = %14
  %27 = tail call i64 @rb_obj_class(i64 noundef %0)
  tail call void (i64, ptr, ...) @rb_raise(i64 noundef %24, ptr noundef nonnull @.str.149, ptr noundef nonnull %17, i64 noundef %27, ptr noundef %1) #24
  unreachable

28:                                               ; preds = %5, %8
  %.0 = phi i64 [ 4, %8 ], [ %6, %5 ]
  ret i64 %.0
}